target datalayout = "e-m:e-p270:32:32-p271:32:32-p272:64:64-i64:64-i128:128-f80:128-n8:16:32:64-S128"
target triple = "x86_64-pc-linux-gnu"

%struct.Bdc_Par_t_ = type { i32, i32, i32 }
%struct.Aig_RMan_t_ = type { i32, ptr, i32, ptr, i32, ptr, ptr, [128 x i32], [128 x i32], [128 x i32], [128 x i32], [24 x %struct.Aig_VSig_t_], [12 x i8], [12 x i8], [13 x i32], i32, i32, i32, i32, i32 }
%struct.Aig_VSig_t_ = type { i32, [12 x i32] }

@Aig_RManStart.pPars = internal global ptr @Aig_RManStart.Pars, align 8

; Function Attrs: inlinehint nounwind uwtable
define internal i32 @Abc_PrimeCudd(i32 noundef %0) #5 {
  %2 = alloca i32, align 4
  %3 = alloca i32, align 4
  %4 = alloca i32, align 4
  store i32 %0, ptr %2, align 4, !tbaa !25
  call void @llvm.lifetime.start.p0(i64 4, ptr %3) #10
  call void @llvm.lifetime.start.p0(i64 4, ptr %4) #10
  %5 = load i32, ptr %2, align 4, !tbaa !25
  %6 = add i32 %5, -1
  store i32 %6, ptr %2, align 4, !tbaa !25
  br label %7

7:                                                ; preds = %32, %1
  %8 = load i32, ptr %2, align 4, !tbaa !25
  %9 = add i32 %8, 1
  store i32 %9, ptr %2, align 4, !tbaa !25
  %10 = load i32, ptr %2, align 4, !tbaa !25
  %11 = and i32 %10, 1
  %12 = icmp ne i32 %11, 0
  br i1 %12, label %13, label %30

13:                                               ; preds = %7
  store i32 1, ptr %4, align 4, !tbaa !25
  store i32 3, ptr %3, align 4, !tbaa !25
  br label %14

14:                                               ; preds = %26, %13
  %15 = load i32, ptr %3, align 4, !tbaa !25
  %16 = load i32, ptr %3, align 4, !tbaa !25
  %17 = mul nsw i32 %15, %16
  %18 = load i32, ptr %2, align 4, !tbaa !25
  %19 = icmp ule i32 %17, %18
  br i1 %19, label %20, label %29

20:                                               ; preds = %14
  %21 = load i32, ptr %2, align 4, !tbaa !25
  %22 = load i32, ptr %3, align 4, !tbaa !25
  %23 = urem i32 %21, %22
  %24 = icmp eq i32 %23, 0
  br i1 %24, label %25, label %26

25:                                               ; preds = %20
  store i32 0, ptr %4, align 4, !tbaa !25
  br label %29

26:                                               ; preds = %20
  %27 = load i32, ptr %3, align 4, !tbaa !25
  %28 = add nsw i32 %27, 2
  store i32 %28, ptr %3, align 4, !tbaa !25
  br label %14, !llvm.loop !26

29:                                               ; preds = %25, %14
  br label %31

30:                                               ; preds = %7
  store i32 0, ptr %4, align 4, !tbaa !25
  br label %31

31:                                               ; preds = %30, %29
  br label %32

32:                                               ; preds = %31
  %33 = load i32, ptr %4, align 4, !tbaa !25
  %34 = icmp ne i32 %33, 0
  %35 = xor i1 %34, true
  br i1 %35, label %7, label %36, !llvm.loop !28

36:                                               ; preds = %32
  %37 = load i32, ptr %2, align 4, !tbaa !25
  call void @llvm.lifetime.end.p0(i64 4, ptr %4) #10
  call void @llvm.lifetime.end.p0(i64 4, ptr %3) #10
  ret i32 %37
}

; Function Attrs: nounwind uwtable
define ptr @Aig_RManStart() #0 {
  %1 = alloca ptr, align 8
  call void @llvm.lifetime.start.p0(i64 8, ptr %1) #10
  %2 = call noalias ptr @malloc(i64 noundef 3448) #11
  store ptr %2, ptr %1, align 8, !tbaa !3
  %3 = load ptr, ptr %1, align 8, !tbaa !3
  call void @llvm.memset.p0.i64(ptr align 8 %3, i8 0, i64 3448, i1 false)
  %4 = load ptr, ptr %1, align 8, !tbaa !3
  %5 = getelementptr inbounds nuw %struct.Aig_RMan_t_, ptr %4, i32 0, i32 0
  store i32 12, ptr %5, align 8, !tbaa !8
  %6 = call ptr @Aig_ManStart(i32 noundef 1000000)
  %7 = load ptr, ptr %1, align 8, !tbaa !3
  %8 = getelementptr inbounds nuw %struct.Aig_RMan_t_, ptr %7, i32 0, i32 1
  store ptr %6, ptr %8, align 8, !tbaa !15
  %9 = load ptr, ptr %1, align 8, !tbaa !3
  %10 = getelementptr inbounds nuw %struct.Aig_RMan_t_, ptr %9, i32 0, i32 1
  %11 = load ptr, ptr %10, align 8, !tbaa !15
  %12 = load ptr, ptr %1, align 8, !tbaa !3
  %13 = getelementptr inbounds nuw %struct.Aig_RMan_t_, ptr %12, i32 0, i32 0
  %14 = load i32, ptr %13, align 8, !tbaa !8
  %15 = sub nsw i32 %14, 1
  %16 = call ptr @Aig_IthVar(ptr noundef %11, i32 noundef %15)
  %17 = call i32 @Abc_PrimeCudd(i32 noundef 5000)
  %18 = load ptr, ptr %1, align 8, !tbaa !3
  %19 = getelementptr inbounds nuw %struct.Aig_RMan_t_, ptr %18, i32 0, i32 2
  store i32 %17, ptr %19, align 8, !tbaa !16
  %20 = load ptr, ptr %1, align 8, !tbaa !3
  %21 = getelementptr inbounds nuw %struct.Aig_RMan_t_, ptr %20, i32 0, i32 2
  %22 = load i32, ptr %21, align 8, !tbaa !16
  %23 = sext i32 %22 to i64
  %24 = call noalias ptr @calloc(i64 noundef %23, i64 noundef 8) #12
  %25 = load ptr, ptr %1, align 8, !tbaa !3
  %26 = getelementptr inbounds nuw %struct.Aig_RMan_t_, ptr %25, i32 0, i32 3
  store ptr %24, ptr %26, align 8, !tbaa !17
  %27 = call ptr (...) @Aig_MmFlexStart()
  %28 = load ptr, ptr %1, align 8, !tbaa !3
  %29 = getelementptr inbounds nuw %struct.Aig_RMan_t_, ptr %28, i32 0, i32 5
  store ptr %27, ptr %29, align 8, !tbaa !18
  %30 = load ptr, ptr %1, align 8, !tbaa !3
  %31 = getelementptr inbounds nuw %struct.Aig_RMan_t_, ptr %30, i32 0, i32 0
  %32 = load i32, ptr %31, align 8, !tbaa !8
  %33 = load ptr, ptr @Aig_RManStart.pPars, align 8, !tbaa !19
  %34 = getelementptr inbounds nuw %struct.Bdc_Par_t_, ptr %33, i32 0, i32 0
  store i32 %32, ptr %34, align 4, !tbaa !21
  %35 = load ptr, ptr @Aig_RManStart.pPars, align 8, !tbaa !19
  %36 = getelementptr inbounds nuw %struct.Bdc_Par_t_, ptr %35, i32 0, i32 1
  store i32 0, ptr %36, align 4, !tbaa !23
  %37 = load ptr, ptr @Aig_RManStart.pPars, align 8, !tbaa !19
  %38 = call ptr @Bdc_ManAlloc(ptr noundef %37)
  %39 = load ptr, ptr %1, align 8, !tbaa !3
  %40 = getelementptr inbounds nuw %struct.Aig_RMan_t_, ptr %39, i32 0, i32 6
  store ptr %38, ptr %40, align 8, !tbaa !24
  %41 = load ptr, ptr %1, align 8, !tbaa !3
  call void @llvm.lifetime.end.p0(i64 8, ptr %1) #10
  ret ptr %41
}