; Function Attrs: nounwind uwtable
define noalias noundef ptr @Aig_RManStart() local_unnamed_addr #0 {
  %calloc = tail call dereferenceable_or_null(3448) ptr @calloc(i64 1, i64 3448)
  store i32 12, ptr %calloc, align 8, !tbaa !3
  %1 = tail call ptr @Aig_ManStart(i32 noundef 1000000) #16
  %2 = getelementptr inbounds nuw i8, ptr %calloc, i64 8
  store ptr %1, ptr %2, align 8, !tbaa !13
  %3 = tail call ptr @Aig_IthVar(ptr noundef %1, i32 noundef 11) #16
  br label %.loopexit.i

.loopexit.i:                                      ; preds = %.loopexit.i.backedge, %0
  %.012.i = phi i32 [ 4999, %0 ], [ %4, %.loopexit.i.backedge ]
  %4 = add i32 %.012.i, 1
  %5 = and i32 %.012.i, 1
  %.not.not.i = icmp eq i32 %5, 0
  br i1 %.not.not.i, label %.preheader.i, label %.loopexit.i.backedge

.loopexit.i.backedge:                             ; preds = %.lr.ph.i, %.loopexit.i
  br label %.loopexit.i, !llvm.loop !14

.preheader.i:                                     ; preds = %.loopexit.i
  %.not15.i = icmp ult i32 %4, 9
  br i1 %.not15.i, label %Abc_PrimeCudd.exit, label %.lr.ph.i

6:                                                ; preds = %.lr.ph.i
  %7 = add nuw nsw i32 %.01116.i, 2
  %8 = mul nuw nsw i32 %7, %7
  %.not.i = icmp ugt i32 %8, %4
  br i1 %.not.i, label %Abc_PrimeCudd.exit, label %.lr.ph.i, !llvm.loop !16

.lr.ph.i:                                         ; preds = %.preheader.i, %6
  %.01116.i = phi i32 [ %7, %6 ], [ 3, %.preheader.i ]
  %9 = urem i32 %4, %.01116.i
  %10 = icmp eq i32 %9, 0
  br i1 %10, label %.loopexit.i.backedge, label %6, !llvm.loop !14

Abc_PrimeCudd.exit:                               ; preds = %.preheader.i, %6
  %11 = getelementptr inbounds nuw i8, ptr %calloc, i64 16
  store i32 %4, ptr %11, align 8, !tbaa !17
  %12 = sext i32 %4 to i64
  %13 = tail call noalias ptr @calloc(i64 noundef %12, i64 noundef 8) #17
  %14 = getelementptr inbounds nuw i8, ptr %calloc, i64 24
  store ptr %13, ptr %14, align 8, !tbaa !18
  %15 = tail call ptr (...) @Aig_MmFlexStart() #16
  %16 = getelementptr inbounds nuw i8, ptr %calloc, i64 40
  store ptr %15, ptr %16, align 8, !tbaa !19
  store i32 12, ptr @Aig_RManStart.Pars, align 4, !tbaa !20
  store i32 0, ptr getelementptr inbounds nuw (i8, ptr @Aig_RManStart.Pars, i64 4), align 4, !tbaa !22
  %17 = tail call ptr @Bdc_ManAlloc(ptr noundef nonnull @Aig_RManStart.Pars) #16
  %18 = getelementptr inbounds nuw i8, ptr %calloc, i64 48
  store ptr %17, ptr %18, align 8, !tbaa !23
  ret ptr %calloc
}